target datalayout = "e-m:e-p270:32:32-p271:32:32-p272:64:64-i64:64-i128:128-f80:128-n8:16:32:64-S128"
target triple = "x86_64-unknown-linux-gnu"

%"struct.zmq::blob_t" = type <{ ptr, i64, i8, [7 x i8] }>
%"struct.zmq::routing_socket_base_t::out_pipe_t" = type { ptr, i8 }

; Function Attrs: mustprogress nounwind uwtable
define linkonce_odr void @_ZN3zmq6blob_tD2Ev(ptr noundef nonnull align 8 dereferenceable(17) %this) unnamed_addr #2 comdat align 2 {
entry:
  %this.addr = alloca ptr, align 8
  store ptr %this, ptr %this.addr, align 8
  %this1 = load ptr, ptr %this.addr, align 8
  %_owned = getelementptr inbounds %"struct.zmq::blob_t", ptr %this1, i32 0, i32 2
  %0 = load i8, ptr %_owned, align 8
  %tobool = trunc i8 %0 to i1
  br i1 %tobool, label %if.then, label %if.end

if.then:                                          ; preds = %entry
  %_data = getelementptr inbounds %"struct.zmq::blob_t", ptr %this1, i32 0, i32 0
  %1 = load ptr, ptr %_data, align 8
  call void @free(ptr noundef %1) #13
  br label %if.end

if.end:                                           ; preds = %if.then, %entry
  ret void
}

; Function Attrs: mustprogress nounwind uwtable
define linkonce_odr void @_ZN3zmq6blob_tC2EPhmNS_15reference_tag_tE(ptr noundef nonnull align 8 dereferenceable(17) %this, ptr noundef %data_, i64 noundef %size_) unnamed_addr #2 comdat align 2 {
entry:
  %this.addr = alloca ptr, align 8
  %data_.addr = alloca ptr, align 8
  %size_.addr = alloca i64, align 8
  store ptr %this, ptr %this.addr, align 8
  store ptr %data_, ptr %data_.addr, align 8
  store i64 %size_, ptr %size_.addr, align 8
  %this1 = load ptr, ptr %this.addr, align 8
  %_data = getelementptr inbounds %"struct.zmq::blob_t", ptr %this1, i32 0, i32 0
  %0 = load ptr, ptr %data_.addr, align 8
  store ptr %0, ptr %_data, align 8
  %_size = getelementptr inbounds %"struct.zmq::blob_t", ptr %this1, i32 0, i32 1
  %1 = load i64, ptr %size_.addr, align 8
  store i64 %1, ptr %_size, align 8
  %_owned = getelementptr inbounds %"struct.zmq::blob_t", ptr %this1, i32 0, i32 2
  store i8 0, ptr %_owned, align 8
  ret void
}

; Function Attrs: mustprogress uwtable
define noundef i32 @_ZNK3zmq8router_t14get_peer_stateEPKvm(ptr noundef nonnull align 8 dereferenceable(2180) %this, ptr noundef %routing_id_, i64 noundef %routing_id_size_) unnamed_addr #0 align 2 personality ptr @__gxx_personality_v0 {
entry:
  %retval = alloca i32, align 4
  %this.addr = alloca ptr, align 8
  %routing_id_.addr = alloca ptr, align 8
  %routing_id_size_.addr = alloca i64, align 8
  %res = alloca i32, align 4
  %routing_id_blob = alloca %"struct.zmq::blob_t", align 8
  %out_pipe = alloca ptr, align 8
  %exn.slot = alloca ptr, align 8
  %ehselector.slot = alloca i32, align 4
  %cleanup.dest.slot = alloca i32, align 4
  store ptr %this, ptr %this.addr, align 8
  store ptr %routing_id_, ptr %routing_id_.addr, align 8
  store i64 %routing_id_size_, ptr %routing_id_size_.addr, align 8
  %this1 = load ptr, ptr %this.addr, align 8
  store i32 0, ptr %res, align 4
  %0 = load ptr, ptr %routing_id_.addr, align 8
  %1 = load i64, ptr %routing_id_size_.addr, align 8
  call void @_ZN3zmq6blob_tC2EPhmNS_15reference_tag_tE(ptr noundef nonnull align 8 dereferenceable(17) %routing_id_blob, ptr noundef %0, i64 noundef %1)
  %call = invoke noundef ptr @_ZNK3zmq21routing_socket_base_t15lookup_out_pipeERKNS_6blob_tE(ptr noundef nonnull align 8 dereferenceable(1912) %this1, ptr noundef nonnull align 8 dereferenceable(17) %routing_id_blob)
          to label %invoke.cont unwind label %lpad

invoke.cont:                                      ; preds = %entry
  store ptr %call, ptr %out_pipe, align 8
  %2 = load ptr, ptr %out_pipe, align 8
  %tobool = icmp ne ptr %2, null
  br i1 %tobool, label %if.end, label %if.then

if.then:                                          ; preds = %invoke.cont
  %call2 = call ptr @__errno_location() #16
  store i32 113, ptr %call2, align 4
  store i32 -1, ptr %retval, align 4
  store i32 1, ptr %cleanup.dest.slot, align 4
  br label %cleanup

lpad:                                             ; preds = %if.end, %entry
  %3 = landingpad { ptr, i32 }
          cleanup
  %4 = extractvalue { ptr, i32 } %3, 0
  store ptr %4, ptr %exn.slot, align 8
  %5 = extractvalue { ptr, i32 } %3, 1
  store i32 %5, ptr %ehselector.slot, align 4
  call void @_ZN3zmq6blob_tD2Ev(ptr noundef nonnull align 8 dereferenceable(17) %routing_id_blob) #13
  br label %eh.resume

if.end:                                           ; preds = %invoke.cont
  %6 = load ptr, ptr %out_pipe, align 8
  %pipe = getelementptr inbounds %"struct.zmq::routing_socket_base_t::out_pipe_t", ptr %6, i32 0, i32 0
  %7 = load ptr, ptr %pipe, align 8
  %call4 = invoke noundef zeroext i1 @_ZNK3zmq6pipe_t9check_hwmEv(ptr noundef nonnull align 8 dereferenceable(328) %7)
          to label %invoke.cont3 unwind label %lpad

invoke.cont3:                                     ; preds = %if.end
  br i1 %call4, label %if.then5, label %if.end6

if.then5:                                         ; preds = %invoke.cont3
  %8 = load i32, ptr %res, align 4
  %or = or i32 %8, 2
  store i32 %or, ptr %res, align 4
  br label %if.end6

if.end6:                                          ; preds = %if.then5, %invoke.cont3
  %9 = load i32, ptr %res, align 4
  store i32 %9, ptr %retval, align 4
  store i32 1, ptr %cleanup.dest.slot, align 4
  br label %cleanup

cleanup:                                          ; preds = %if.end6, %if.then
  call void @_ZN3zmq6blob_tD2Ev(ptr noundef nonnull align 8 dereferenceable(17) %routing_id_blob) #13
  %10 = load i32, ptr %retval, align 4
  ret i32 %10

eh.resume:                                        ; preds = %lpad
  %exn = load ptr, ptr %exn.slot, align 8
  %sel = load i32, ptr %ehselector.slot, align 4
  %lpad.val = insertvalue { ptr, i32 } poison, ptr %exn, 0
  %lpad.val7 = insertvalue { ptr, i32 } %lpad.val, i32 %sel, 1
  resume { ptr, i32 } %lpad.val7
}