; Function Attrs: mustprogress uwtable
define noundef i32 @_ZNK3zmq8router_t14get_peer_stateEPKvm(ptr noundef nonnull align 8 dereferenceable(2180) %this, ptr noundef %routing_id_, i64 noundef %routing_id_size_) unnamed_addr #0 align 2 personality ptr @__gxx_personality_v0 {
entry:
  %routing_id_blob = alloca %"struct.zmq::blob_t", align 8
  store ptr %routing_id_, ptr %routing_id_blob, align 8
  %_size.i = getelementptr inbounds i8, ptr %routing_id_blob, i64 8
  store i64 %routing_id_size_, ptr %_size.i, align 8
  %_owned.i = getelementptr inbounds i8, ptr %routing_id_blob, i64 16
  store i8 0, ptr %_owned.i, align 8
  %call = invoke noundef ptr @_ZNK3zmq21routing_socket_base_t15lookup_out_pipeERKNS_6blob_tE(ptr noundef nonnull align 8 dereferenceable(1912) %this, ptr noundef nonnull align 8 dereferenceable(17) %routing_id_blob)
          to label %invoke.cont unwind label %lpad

invoke.cont:                                      ; preds = %entry
  %tobool.not = icmp eq ptr %call, null
  br i1 %tobool.not, label %if.then, label %if.end

if.then:                                          ; preds = %invoke.cont
  %call2 = tail call ptr @__errno_location() #19
  store i32 113, ptr %call2, align 4
  br label %cleanup

lpad:                                             ; preds = %if.end, %entry
  %0 = landingpad { ptr, i32 }
          cleanup
  %1 = load i8, ptr %_owned.i, align 8
  %2 = and i8 %1, 1
  %tobool.not.i = icmp eq i8 %2, 0
  br i1 %tobool.not.i, label %_ZN3zmq6blob_tD2Ev.exit, label %if.then.i

if.then.i:                                        ; preds = %lpad
  %3 = load ptr, ptr %routing_id_blob, align 8
  call void @free(ptr noundef %3) #15
  br label %_ZN3zmq6blob_tD2Ev.exit

_ZN3zmq6blob_tD2Ev.exit:                          ; preds = %lpad, %if.then.i
  resume { ptr, i32 } %0

if.end:                                           ; preds = %invoke.cont
  %4 = load ptr, ptr %call, align 8
  %call4 = invoke noundef zeroext i1 @_ZNK3zmq6pipe_t9check_hwmEv(ptr noundef nonnull align 8 dereferenceable(328) %4)
          to label %invoke.cont3 unwind label %lpad

invoke.cont3:                                     ; preds = %if.end
  %spec.select = select i1 %call4, i32 2, i32 0
  br label %cleanup

cleanup:                                          ; preds = %invoke.cont3, %if.then
  %retval.0 = phi i32 [ %spec.select, %invoke.cont3 ], [ -1, %if.then ]
  %5 = load i8, ptr %_owned.i, align 8
  %6 = and i8 %5, 1
  %tobool.not.i5 = icmp eq i8 %6, 0
  br i1 %tobool.not.i5, label %_ZN3zmq6blob_tD2Ev.exit7, label %if.then.i6

if.then.i6:                                       ; preds = %cleanup
  %7 = load ptr, ptr %routing_id_blob, align 8
  call void @free(ptr noundef %7) #15
  br label %_ZN3zmq6blob_tD2Ev.exit7

_ZN3zmq6blob_tD2Ev.exit7:                         ; preds = %cleanup, %if.then.i6
  ret i32 %retval.0
}